; Function Attrs: nounwind uwtable
define internal noundef i32 @apply_option_parse_p(ptr noundef readonly captures(none) %0, ptr noundef readonly captures(none) %1, i32 noundef %2) #0 {
  %.not = icmp eq i32 %2, 0
  br i1 %.not, label %5, label %4

4:                                                ; preds = %3
  tail call void (ptr, i32, ptr, ...) @BUG_fl(ptr noundef nonnull @.str.180, i32 noundef 4917, ptr noundef nonnull @.str.270) #25
  unreachable

5:                                                ; preds = %3
  %6 = getelementptr inbounds nuw i8, ptr %0, i64 16
  %7 = load ptr, ptr %6, align 8, !tbaa !202
  %8 = tail call i64 @strtol(ptr noundef nonnull captures(none) %1, ptr noundef null, i32 noundef 10) #21
  %9 = trunc i64 %8 to i32
  %10 = getelementptr inbounds nuw i8, ptr %7, i64 160
  store i32 %9, ptr %10, align 8, !tbaa !26
  %11 = getelementptr inbounds nuw i8, ptr %7, i64 164
  store i32 1, ptr %11, align 4, !tbaa !209
  ret i32 0
}